target datalayout = "e-m:e-p270:32:32-p271:32:32-p272:64:64-i64:64-i128:128-f80:128-n8:16:32:64-S128"
target triple = "x86_64-pc-linux-gnu"

%class.symbol = type { ptr }
%"class.euf::th_solver" = type { %"class.sat::extension", %"class.euf::th_model_builder", %"class.euf::th_decompile", %"class.euf::th_internalizer", ptr }
%"class.sat::extension" = type { ptr, i8, i32, %class.symbol, ptr }
%"class.euf::th_model_builder" = type { ptr }
%"class.euf::th_decompile" = type { ptr }
%"class.euf::th_internalizer" = type { ptr, %class.ptr_vector, %class.svector }
%class.svector = type { %class.vector.0 }
%class.vector.0 = type { ptr }
%class.svector.1 = type { %class.vector.2 }
%class.vector.2 = type { ptr }
%class.ptr_vector = type { %class.vector }
%class.vector = type { ptr }
%"class.euf::th_euf_solver" = type <{ %"class.euf::th_solver", ptr, %class.ptr_vector, %class.svector.1, i32, [4 x i8] }>

; Function Attrs: mustprogress uwtable
define linkonce_odr hidden void @_ZN3euf13th_euf_solver10force_pushEv(ptr noundef nonnull align 8 dereferenceable(108) %0) #4 comdat align 2 {
  %2 = alloca ptr, align 8
  store ptr %0, ptr %2, align 8, !tbaa !425
  %3 = load ptr, ptr %2, align 8
  br label %4

4:                                                ; preds = %12, %1
  %5 = getelementptr inbounds nuw %"class.euf::th_euf_solver", ptr %3, i32 0, i32 4
  %6 = load i32, ptr %5, align 8, !tbaa !542
  %7 = icmp ugt i32 %6, 0
  br i1 %7, label %8, label %16

8:                                                ; preds = %4
  %9 = load ptr, ptr %3, align 8, !tbaa !12
  %10 = getelementptr inbounds ptr, ptr %9, i64 64
  %11 = load ptr, ptr %10, align 8
  call void %11(ptr noundef nonnull align 8 dereferenceable(108) %3)
  br label %12

12:                                               ; preds = %8
  %13 = getelementptr inbounds nuw %"class.euf::th_euf_solver", ptr %3, i32 0, i32 4
  %14 = load i32, ptr %13, align 8, !tbaa !542
  %15 = add i32 %14, -1
  store i32 %15, ptr %13, align 8, !tbaa !542
  br label %4, !llvm.loop !543

16:                                               ; preds = %4
  ret void
}

; Function Attrs: mustprogress uwtable
define hidden void @_ZN2dt6solver16apply_sort_cnstrEPN3euf5enodeEP4sort(ptr noundef nonnull align 8 dereferenceable(472) %0, ptr noundef %1, ptr noundef %2) unnamed_addr #4 align 2 {
  %4 = alloca ptr, align 8
  %5 = alloca ptr, align 8
  %6 = alloca ptr, align 8
  store ptr %0, ptr %4, align 8, !tbaa !3
  store ptr %1, ptr %5, align 8, !tbaa !441
  store ptr %2, ptr %6, align 8, !tbaa !529
  %7 = load ptr, ptr %4, align 8
  call void @_ZN3euf13th_euf_solver10force_pushEv(ptr noundef nonnull align 8 dereferenceable(108) %7)
  %8 = load ptr, ptr %5, align 8, !tbaa !441
  %9 = call noundef zeroext i1 @_ZNK3euf13th_euf_solver18is_attached_to_varEPNS_5enodeE(ptr noundef nonnull align 8 dereferenceable(108) %7, ptr noundef %8)
  br i1 %9, label %16, label %10

10:                                               ; preds = %3
  %11 = load ptr, ptr %5, align 8, !tbaa !441
  %12 = load ptr, ptr %7, align 8, !tbaa !12
  %13 = getelementptr inbounds ptr, ptr %12, i64 66
  %14 = load ptr, ptr %13, align 8
  %15 = call noundef i32 %14(ptr noundef nonnull align 8 dereferenceable(472) %7, ptr noundef %11)
  br label %16

16:                                               ; preds = %10, %3
  ret void
}

; Function Attrs: uwtable
define hidden void @_ZThn48_N2dt6solver16apply_sort_cnstrEPN3euf5enodeEP4sort(ptr noundef %0, ptr noundef %1, ptr noundef %2) unnamed_addr #0 align 2 {
  %4 = alloca ptr, align 8
  %5 = alloca ptr, align 8
  %6 = alloca ptr, align 8
  store ptr %0, ptr %4, align 8, !tbaa !3
  store ptr %1, ptr %5, align 8, !tbaa !441
  store ptr %2, ptr %6, align 8, !tbaa !529
  %7 = load ptr, ptr %4, align 8
  %8 = getelementptr inbounds i8, ptr %7, i64 -48
  %9 = load ptr, ptr %5, align 8, !tbaa !441
  %10 = load ptr, ptr %6, align 8, !tbaa !529
  tail call void @_ZN2dt6solver16apply_sort_cnstrEPN3euf5enodeEP4sort(ptr noundef nonnull align 8 dereferenceable(472) %8, ptr noundef %9, ptr noundef %10)
  ret void
}