; Function Attrs: uwtable
define hidden void @_ZThn48_N2dt6solver16apply_sort_cnstrEPN3euf5enodeEP4sort(ptr noundef %0, ptr noundef %1, ptr readnone captures(none) %2) unnamed_addr #13 align 2 {
  %4 = getelementptr inbounds i8, ptr %0, i64 -48
  %5 = getelementptr inbounds nuw i8, ptr %0, i64 56
  %6 = load i32, ptr %5, align 8, !tbaa !533
  %.not1.i.i = icmp eq i32 %6, 0
  br i1 %.not1.i.i, label %_ZN3euf13th_euf_solver10force_pushEv.exit.i, label %.lr.ph.i.i

.lr.ph.i.i:                                       ; preds = %3, %.lr.ph.i.i
  %7 = load ptr, ptr %4, align 8, !tbaa !388
  %8 = getelementptr inbounds nuw i8, ptr %7, i64 512
  %9 = load ptr, ptr %8, align 8
  tail call void %9(ptr noundef nonnull align 8 dereferenceable(472) %4)
  %10 = load i32, ptr %5, align 8, !tbaa !533
  %11 = add i32 %10, -1
  store i32 %11, ptr %5, align 8, !tbaa !533
  %.not.i.i = icmp eq i32 %11, 0
  br i1 %.not.i.i, label %_ZN3euf13th_euf_solver10force_pushEv.exit.i, label %.lr.ph.i.i, !llvm.loop !534

_ZN3euf13th_euf_solver10force_pushEv.exit.i:      ; preds = %.lr.ph.i.i, %3
  %12 = tail call noundef zeroext i1 @_ZNK3euf13th_euf_solver18is_attached_to_varEPNS_5enodeE(ptr noundef nonnull align 8 dereferenceable(472) %4, ptr noundef %1)
  br i1 %12, label %_ZN2dt6solver16apply_sort_cnstrEPN3euf5enodeEP4sort.exit, label %13

13:                                               ; preds = %_ZN3euf13th_euf_solver10force_pushEv.exit.i
  %14 = load ptr, ptr %4, align 8, !tbaa !388
  %15 = getelementptr inbounds nuw i8, ptr %14, i64 528
  %16 = load ptr, ptr %15, align 8
  %17 = tail call noundef i32 %16(ptr noundef nonnull align 8 dereferenceable(472) %4, ptr noundef %1)
  br label %_ZN2dt6solver16apply_sort_cnstrEPN3euf5enodeEP4sort.exit

_ZN2dt6solver16apply_sort_cnstrEPN3euf5enodeEP4sort.exit: ; preds = %_ZN3euf13th_euf_solver10force_pushEv.exit.i, %13
  ret void
}